target datalayout = "e-m:e-p270:32:32-p271:32:32-p272:64:64-i64:64-i128:128-f80:128-n8:16:32:64-S128"
target triple = "x86_64-pc-linux-gnu"

%struct.Kit_DsdNtk_t_ = type { i16, i16, i16, i16, ptr, ptr, ptr }
%struct.Kit_DsdObj_t_ = type { i32, [0 x i16] }

; Function Attrs: inlinehint nounwind uwtable
define internal i32 @Abc_Lit2Var(i32 noundef %0) #4 {
  %2 = alloca i32, align 4
  store i32 %0, ptr %2, align 4, !tbaa !3
  %3 = load i32, ptr %2, align 4, !tbaa !3
  %4 = ashr i32 %3, 1
  ret i32 %4
}

; Function Attrs: inlinehint nounwind uwtable
define internal ptr @Kit_DsdNtkObj(ptr noundef %0, i32 noundef %1) #4 {
  %3 = alloca ptr, align 8
  %4 = alloca i32, align 4
  store ptr %0, ptr %3, align 8, !tbaa !37
  store i32 %1, ptr %4, align 4, !tbaa !3
  %5 = load i32, ptr %4, align 4, !tbaa !3
  %6 = load ptr, ptr %3, align 8, !tbaa !37
  %7 = getelementptr inbounds nuw %struct.Kit_DsdNtk_t_, ptr %6, i32 0, i32 0
  %8 = load i16, ptr %7, align 8, !tbaa !41
  %9 = zext i16 %8 to i32
  %10 = icmp slt i32 %5, %9
  br i1 %10, label %11, label %12

11:                                               ; preds = %2
  br label %25

12:                                               ; preds = %2
  %13 = load ptr, ptr %3, align 8, !tbaa !37
  %14 = getelementptr inbounds nuw %struct.Kit_DsdNtk_t_, ptr %13, i32 0, i32 6
  %15 = load ptr, ptr %14, align 8, !tbaa !47
  %16 = load i32, ptr %4, align 4, !tbaa !3
  %17 = load ptr, ptr %3, align 8, !tbaa !37
  %18 = getelementptr inbounds nuw %struct.Kit_DsdNtk_t_, ptr %17, i32 0, i32 0
  %19 = load i16, ptr %18, align 8, !tbaa !41
  %20 = zext i16 %19 to i32
  %21 = sub nsw i32 %16, %20
  %22 = sext i32 %21 to i64
  %23 = getelementptr inbounds ptr, ptr %15, i64 %22
  %24 = load ptr, ptr %23, align 8, !tbaa !39
  br label %25

25:                                               ; preds = %12, %11
  %26 = phi ptr [ null, %11 ], [ %24, %12 ]
  ret ptr %26
}

; Function Attrs: nounwind uwtable
define i32 @Kit_DsdCountLuts_rec(ptr noundef %0, i32 noundef %1, i32 noundef %2, ptr noundef %3) #0 {
  %5 = alloca i32, align 4
  %6 = alloca ptr, align 8
  %7 = alloca i32, align 4
  %8 = alloca i32, align 4
  %9 = alloca ptr, align 8
  %10 = alloca ptr, align 8
  %11 = alloca i32, align 4
  %12 = alloca i32, align 4
  %13 = alloca i32, align 4
  %14 = alloca i32, align 4
  %15 = alloca i32, align 4
  store ptr %0, ptr %6, align 8, !tbaa !37
  store i32 %1, ptr %7, align 4, !tbaa !3
  store i32 %2, ptr %8, align 4, !tbaa !3
  store ptr %3, ptr %9, align 8, !tbaa !25
  call void @llvm.lifetime.start.p0(i64 8, ptr %10) #9
  call void @llvm.lifetime.start.p0(i64 4, ptr %11) #9
  call void @llvm.lifetime.start.p0(i64 4, ptr %12) #9
  call void @llvm.lifetime.start.p0(i64 4, ptr %13) #9
  call void @llvm.lifetime.start.p0(i64 4, ptr %14) #9
  %16 = load ptr, ptr %6, align 8, !tbaa !37
  %17 = load i32, ptr %8, align 4, !tbaa !3
  %18 = call ptr @Kit_DsdNtkObj(ptr noundef %16, i32 noundef %17)
  store ptr %18, ptr %10, align 8, !tbaa !39
  %19 = load ptr, ptr %10, align 8, !tbaa !39
  %20 = icmp eq ptr %19, null
  br i1 %20, label %21, label %22

21:                                               ; preds = %4
  store i32 0, ptr %5, align 4
  store i32 1, ptr %15, align 4
  br label %122

22:                                               ; preds = %4
  %23 = load ptr, ptr %10, align 8, !tbaa !39
  %24 = load i32, ptr %23, align 4
  %25 = lshr i32 %24, 6
  %26 = and i32 %25, 7
  %27 = icmp eq i32 %26, 3
  br i1 %27, label %34, label %28

28:                                               ; preds = %22
  %29 = load ptr, ptr %10, align 8, !tbaa !39
  %30 = load i32, ptr %29, align 4
  %31 = lshr i32 %30, 6
  %32 = and i32 %31, 7
  %33 = icmp eq i32 %32, 4
  br i1 %33, label %34, label %78

34:                                               ; preds = %28, %22
  %35 = load ptr, ptr %6, align 8, !tbaa !37
  %36 = load i32, ptr %7, align 4, !tbaa !3
  %37 = load ptr, ptr %10, align 8, !tbaa !39
  %38 = getelementptr inbounds nuw %struct.Kit_DsdObj_t_, ptr %37, i32 0, i32 1
  %39 = getelementptr inbounds [0 x i16], ptr %38, i64 0, i64 0
  %40 = load i16, ptr %39, align 4, !tbaa !58
  %41 = zext i16 %40 to i32
  %42 = call i32 @Abc_Lit2Var(i32 noundef %41)
  %43 = load ptr, ptr %9, align 8, !tbaa !25
  %44 = call i32 @Kit_DsdCountLuts_rec(ptr noundef %35, i32 noundef %36, i32 noundef %42, ptr noundef %43)
  store i32 %44, ptr %13, align 4, !tbaa !3
  %45 = load ptr, ptr %6, align 8, !tbaa !37
  %46 = load i32, ptr %7, align 4, !tbaa !3
  %47 = load ptr, ptr %10, align 8, !tbaa !39
  %48 = getelementptr inbounds nuw %struct.Kit_DsdObj_t_, ptr %47, i32 0, i32 1
  %49 = getelementptr inbounds [0 x i16], ptr %48, i64 0, i64 1
  %50 = load i16, ptr %49, align 2, !tbaa !58
  %51 = zext i16 %50 to i32
  %52 = call i32 @Abc_Lit2Var(i32 noundef %51)
  %53 = load ptr, ptr %9, align 8, !tbaa !25
  %54 = call i32 @Kit_DsdCountLuts_rec(ptr noundef %45, i32 noundef %46, i32 noundef %52, ptr noundef %53)
  store i32 %54, ptr %14, align 4, !tbaa !3
  %55 = load i32, ptr %13, align 4, !tbaa !3
  %56 = icmp eq i32 %55, 0
  br i1 %56, label %57, label %63

57:                                               ; preds = %34
  %58 = load i32, ptr %14, align 4, !tbaa !3
  %59 = icmp ugt i32 %58, 0
  br i1 %59, label %60, label %63

60:                                               ; preds = %57
  %61 = load i32, ptr %14, align 4, !tbaa !3
  %62 = sub i32 %61, 1
  store i32 %62, ptr %5, align 4
  store i32 1, ptr %15, align 4
  br label %122

63:                                               ; preds = %57, %34
  %64 = load i32, ptr %13, align 4, !tbaa !3
  %65 = icmp ugt i32 %64, 0
  br i1 %65, label %66, label %72

66:                                               ; preds = %63
  %67 = load i32, ptr %14, align 4, !tbaa !3
  %68 = icmp eq i32 %67, 0
  br i1 %68, label %69, label %72

69:                                               ; preds = %66
  %70 = load i32, ptr %13, align 4, !tbaa !3
  %71 = sub i32 %70, 1
  store i32 %71, ptr %5, align 4
  store i32 1, ptr %15, align 4
  br label %122

72:                                               ; preds = %66, %63
  %73 = load ptr, ptr %9, align 8, !tbaa !25
  %74 = load i32, ptr %73, align 4, !tbaa !3
  %75 = add nsw i32 %74, 1
  store i32 %75, ptr %73, align 4, !tbaa !3
  %76 = load i32, ptr %7, align 4, !tbaa !3
  %77 = sub nsw i32 %76, 2
  store i32 %77, ptr %5, align 4
  store i32 1, ptr %15, align 4
  br label %122

78:                                               ; preds = %28
  %79 = load ptr, ptr %10, align 8, !tbaa !39
  %80 = load i32, ptr %79, align 4
  %81 = lshr i32 %80, 26
  %82 = load i32, ptr %7, align 4, !tbaa !3
  %83 = icmp sgt i32 %81, %82
  br i1 %83, label %84, label %86

84:                                               ; preds = %78
  %85 = load ptr, ptr %9, align 8, !tbaa !25
  store i32 1000, ptr %85, align 4, !tbaa !3
  store i32 0, ptr %5, align 4
  store i32 1, ptr %15, align 4
  br label %122

86:                                               ; preds = %78
  store i32 0, ptr %12, align 4, !tbaa !3
  br label %87

87:                                               ; preds = %110, %86
  %88 = load i32, ptr %12, align 4, !tbaa !3
  %89 = load ptr, ptr %10, align 8, !tbaa !39
  %90 = load i32, ptr %89, align 4
  %91 = lshr i32 %90, 26
  %92 = icmp ult i32 %88, %91
  br i1 %92, label %93, label %101

93:                                               ; preds = %87
  %94 = load ptr, ptr %10, align 8, !tbaa !39
  %95 = getelementptr inbounds nuw %struct.Kit_DsdObj_t_, ptr %94, i32 0, i32 1
  %96 = load i32, ptr %12, align 4, !tbaa !3
  %97 = zext i32 %96 to i64
  %98 = getelementptr inbounds nuw [0 x i16], ptr %95, i64 0, i64 %97
  %99 = load i16, ptr %98, align 2, !tbaa !58
  %100 = zext i16 %99 to i32
  store i32 %100, ptr %11, align 4, !tbaa !3
  br label %101

101:                                              ; preds = %93, %87
  %102 = phi i1 [ false, %87 ], [ true, %93 ]
  br i1 %102, label %103, label %113

103:                                              ; preds = %101
  %104 = load ptr, ptr %6, align 8, !tbaa !37
  %105 = load i32, ptr %7, align 4, !tbaa !3
  %106 = load i32, ptr %11, align 4, !tbaa !3
  %107 = call i32 @Abc_Lit2Var(i32 noundef %106)
  %108 = load ptr, ptr %9, align 8, !tbaa !25
  %109 = call i32 @Kit_DsdCountLuts_rec(ptr noundef %104, i32 noundef %105, i32 noundef %107, ptr noundef %108)
  br label %110

110:                                              ; preds = %103
  %111 = load i32, ptr %12, align 4, !tbaa !3
  %112 = add i32 %111, 1
  store i32 %112, ptr %12, align 4, !tbaa !3
  br label %87, !llvm.loop !96

113:                                              ; preds = %101
  %114 = load ptr, ptr %9, align 8, !tbaa !25
  %115 = load i32, ptr %114, align 4, !tbaa !3
  %116 = add nsw i32 %115, 1
  store i32 %116, ptr %114, align 4, !tbaa !3
  %117 = load i32, ptr %7, align 4, !tbaa !3
  %118 = load ptr, ptr %10, align 8, !tbaa !39
  %119 = load i32, ptr %118, align 4
  %120 = lshr i32 %119, 26
  %121 = sub nsw i32 %117, %120
  store i32 %121, ptr %5, align 4
  store i32 1, ptr %15, align 4
  br label %122

122:                                              ; preds = %113, %84, %72, %69, %60, %21
  call void @llvm.lifetime.end.p0(i64 4, ptr %14) #9
  call void @llvm.lifetime.end.p0(i64 4, ptr %13) #9
  call void @llvm.lifetime.end.p0(i64 4, ptr %12) #9
  call void @llvm.lifetime.end.p0(i64 4, ptr %11) #9
  call void @llvm.lifetime.end.p0(i64 8, ptr %10) #9
  %123 = load i32, ptr %5, align 4
  ret i32 %123
}