; Function Attrs: nofree nosync nounwind memory(read, argmem: readwrite, inaccessiblemem: none) uwtable
define i32 @Kit_DsdCountLuts_rec(ptr noundef %0, i32 noundef %1, i32 noundef %2, ptr noundef %3) local_unnamed_addr #14 {
  %5 = load i16, ptr %0, align 8, !tbaa !34
  %6 = zext i16 %5 to i32
  %7 = icmp slt i32 %2, %6
  br i1 %7, label %Kit_DsdNtkObj.exit.thread, label %Kit_DsdNtkObj.exit

Kit_DsdNtkObj.exit:                               ; preds = %4
  %8 = getelementptr inbounds nuw i8, ptr %0, i64 24
  %9 = load ptr, ptr %8, align 8, !tbaa !40
  %10 = sub nsw i32 %2, %6
  %11 = sext i32 %10 to i64
  %12 = getelementptr inbounds ptr, ptr %9, i64 %11
  %13 = load ptr, ptr %12, align 8, !tbaa !41
  %14 = icmp eq ptr %13, null
  br i1 %14, label %Kit_DsdNtkObj.exit.thread, label %15

15:                                               ; preds = %Kit_DsdNtkObj.exit
  %16 = load i32, ptr %13, align 4
  %17 = lshr i32 %16, 6
  %18 = and i32 %17, 7
  %.off = add nsw i32 %18, -3
  %switch = icmp ult i32 %.off, 2
  br i1 %switch, label %19, label %43

19:                                               ; preds = %15
  %20 = getelementptr inbounds nuw i8, ptr %13, i64 4
  %21 = load i16, ptr %20, align 4, !tbaa !49
  %22 = lshr i16 %21, 1
  %23 = zext nneg i16 %22 to i32
  %24 = tail call i32 @Kit_DsdCountLuts_rec(ptr noundef nonnull %0, i32 noundef %1, i32 noundef %23, ptr noundef %3)
  %25 = getelementptr inbounds nuw i8, ptr %13, i64 6
  %26 = load i16, ptr %25, align 2, !tbaa !49
  %27 = lshr i16 %26, 1
  %28 = zext nneg i16 %27 to i32
  %29 = tail call i32 @Kit_DsdCountLuts_rec(ptr noundef nonnull %0, i32 noundef %1, i32 noundef %28, ptr noundef %3)
  %30 = icmp eq i32 %24, 0
  %31 = icmp ne i32 %29, 0
  %or.cond = select i1 %30, i1 %31, i1 false
  br i1 %or.cond, label %32, label %34

32:                                               ; preds = %19
  %33 = add i32 %29, -1
  br label %Kit_DsdNtkObj.exit.thread

34:                                               ; preds = %19
  %35 = icmp ne i32 %24, 0
  %36 = icmp eq i32 %29, 0
  %or.cond3 = select i1 %35, i1 %36, i1 false
  br i1 %or.cond3, label %37, label %39

37:                                               ; preds = %34
  %38 = add i32 %24, -1
  br label %Kit_DsdNtkObj.exit.thread

39:                                               ; preds = %34
  %40 = load i32, ptr %3, align 4, !tbaa !20
  %41 = add nsw i32 %40, 1
  store i32 %41, ptr %3, align 4, !tbaa !20
  %42 = add nsw i32 %1, -2
  br label %Kit_DsdNtkObj.exit.thread

43:                                               ; preds = %15
  %44 = lshr i32 %16, 26
  %45 = icmp sgt i32 %44, %1
  br i1 %45, label %47, label %.preheader

.preheader:                                       ; preds = %43
  %.not = icmp ult i32 %16, 67108864
  br i1 %.not, label %.critedge, label %.lr.ph

.lr.ph:                                           ; preds = %.preheader
  %46 = getelementptr inbounds nuw i8, ptr %13, i64 4
  br label %48

47:                                               ; preds = %43
  store i32 1000, ptr %3, align 4, !tbaa !20
  br label %Kit_DsdNtkObj.exit.thread

48:                                               ; preds = %.lr.ph, %48
  %indvars.iv = phi i64 [ 0, %.lr.ph ], [ %indvars.iv.next, %48 ]
  %49 = getelementptr inbounds nuw [0 x i16], ptr %46, i64 0, i64 %indvars.iv
  %50 = load i16, ptr %49, align 2, !tbaa !49
  %51 = lshr i16 %50, 1
  %52 = zext nneg i16 %51 to i32
  %53 = tail call i32 @Kit_DsdCountLuts_rec(ptr noundef nonnull %0, i32 noundef %1, i32 noundef %52, ptr noundef %3)
  %indvars.iv.next = add nuw nsw i64 %indvars.iv, 1
  %54 = load i32, ptr %13, align 4
  %55 = lshr i32 %54, 26
  %56 = zext nneg i32 %55 to i64
  %57 = icmp samesign ult i64 %indvars.iv.next, %56
  br i1 %57, label %48, label %.critedge, !llvm.loop !87

.critedge:                                        ; preds = %48, %.preheader
  %58 = load i32, ptr %3, align 4, !tbaa !20
  %59 = add nsw i32 %58, 1
  store i32 %59, ptr %3, align 4, !tbaa !20
  %60 = load i32, ptr %13, align 4
  %61 = lshr i32 %60, 26
  %62 = sub nsw i32 %1, %61
  br label %Kit_DsdNtkObj.exit.thread

Kit_DsdNtkObj.exit.thread:                        ; preds = %4, %Kit_DsdNtkObj.exit, %.critedge, %47, %39, %37, %32
  %.0 = phi i32 [ %33, %32 ], [ %38, %37 ], [ %42, %39 ], [ 0, %47 ], [ %62, %.critedge ], [ 0, %Kit_DsdNtkObj.exit ], [ 0, %4 ]
  ret i32 %.0
}